target datalayout = "e-m:e-p270:32:32-p271:32:32-p272:64:64-i64:64-i128:128-f80:128-n8:16:32:64-S128"
target triple = "x86_64-pc-linux-gnu"

%struct._object = type { %union.anon, ptr }
%union.anon = type { i64 }
%struct._typeobject = type { %struct.PyVarObject, ptr, i64, i64, ptr, i64, ptr, ptr, ptr, ptr, ptr, ptr, ptr, ptr, ptr, ptr, ptr, ptr, ptr, i64, ptr, ptr, ptr, ptr, i64, ptr, ptr, ptr, ptr, ptr, ptr, ptr, ptr, ptr, i64, ptr, ptr, ptr, ptr, ptr, ptr, ptr, ptr, ptr, ptr, ptr, i32, ptr, ptr, i8, i16 }
%struct.PyVarObject = type { %struct._object, i64 }
%struct.anon = type { i32, i32 }

@.str.42 = private unnamed_addr constant [11 x i8] c"argument 2\00", align 1
@.str.43 = private unnamed_addr constant [5 x i8] c"dict\00", align 1
@.str.68 = private unnamed_addr constant [12 x i8] c"makeelement\00", align 1

; Function Attrs: alwaysinline nounwind uwtable
define internal i32 @_Py_IsImmortal(ptr noundef %0) #4 {
  %2 = alloca ptr, align 8
  store ptr %0, ptr %2, align 8, !tbaa !3
  %3 = load ptr, ptr %2, align 8, !tbaa !3
  %4 = getelementptr inbounds nuw %struct._object, ptr %3, i32 0, i32 0
  %5 = getelementptr inbounds nuw %struct.anon, ptr %4, i32 0, i32 0
  %6 = load i32, ptr %5, align 8, !tbaa !32
  %7 = icmp slt i32 %6, 0
  %8 = zext i1 %7 to i32
  ret i32 %8
}

; Function Attrs: alwaysinline nounwind uwtable
define internal void @Py_DECREF(ptr noundef %0) #4 {
  %2 = alloca ptr, align 8
  store ptr %0, ptr %2, align 8, !tbaa !3
  %3 = load ptr, ptr %2, align 8, !tbaa !3
  %4 = call i32 @_Py_IsImmortal(ptr noundef %3)
  %5 = icmp ne i32 %4, 0
  br i1 %5, label %6, label %7

6:                                                ; preds = %1
  br label %16

7:                                                ; preds = %1
  %8 = load ptr, ptr %2, align 8, !tbaa !3
  %9 = getelementptr inbounds nuw %struct._object, ptr %8, i32 0, i32 0
  %10 = getelementptr inbounds nuw %struct.anon, ptr %9, i32 0, i32 0
  %11 = load i32, ptr %10, align 8, !tbaa !32
  %12 = add i32 %11, -1
  store i32 %12, ptr %10, align 8, !tbaa !32
  %13 = icmp eq i32 %12, 0
  br i1 %13, label %14, label %16

14:                                               ; preds = %7
  %15 = load ptr, ptr %2, align 8, !tbaa !3
  call void @_Py_Dealloc(ptr noundef %15)
  br label %16

16:                                               ; preds = %6, %14, %7
  ret void
}

; Function Attrs: inlinehint nounwind uwtable
define internal ptr @get_elementtree_state_by_cls(ptr noundef %0) #3 {
  %2 = alloca ptr, align 8
  %3 = alloca ptr, align 8
  store ptr %0, ptr %2, align 8, !tbaa !28
  call void @llvm.lifetime.start.p0(i64 8, ptr %3) #8
  %4 = load ptr, ptr %2, align 8, !tbaa !28
  %5 = call ptr @PyType_GetModuleState(ptr noundef %4)
  store ptr %5, ptr %3, align 8, !tbaa !8
  %6 = load ptr, ptr %3, align 8, !tbaa !8
  call void @llvm.lifetime.end.p0(i64 8, ptr %3) #8
  ret ptr %6
}

; Function Attrs: nounwind uwtable
define internal ptr @_elementtree_Element_makeelement_impl(ptr noundef %0, ptr noundef %1, ptr noundef %2, ptr noundef %3) #0 {
  %5 = alloca ptr, align 8
  %6 = alloca ptr, align 8
  %7 = alloca ptr, align 8
  %8 = alloca ptr, align 8
  %9 = alloca ptr, align 8
  %10 = alloca ptr, align 8
  %11 = alloca i32, align 4
  %12 = alloca ptr, align 8
  store ptr %0, ptr %6, align 8, !tbaa !8
  store ptr %1, ptr %7, align 8, !tbaa !28
  store ptr %2, ptr %8, align 8, !tbaa !3
  store ptr %3, ptr %9, align 8, !tbaa !3
  call void @llvm.lifetime.start.p0(i64 8, ptr %10) #8
  %13 = load ptr, ptr %9, align 8, !tbaa !3
  %14 = call ptr @PyDict_Copy(ptr noundef %13)
  store ptr %14, ptr %9, align 8, !tbaa !3
  %15 = load ptr, ptr %9, align 8, !tbaa !3
  %16 = icmp ne ptr %15, null
  br i1 %16, label %18, label %17

17:                                               ; preds = %4
  store ptr null, ptr %5, align 8
  store i32 1, ptr %11, align 4
  br label %27

18:                                               ; preds = %4
  call void @llvm.lifetime.start.p0(i64 8, ptr %12) #8
  %19 = load ptr, ptr %7, align 8, !tbaa !28
  %20 = call ptr @get_elementtree_state_by_cls(ptr noundef %19)
  store ptr %20, ptr %12, align 8, !tbaa !8
  %21 = load ptr, ptr %12, align 8, !tbaa !8
  %22 = load ptr, ptr %8, align 8, !tbaa !3
  %23 = load ptr, ptr %9, align 8, !tbaa !3
  %24 = call ptr @create_new_element(ptr noundef %21, ptr noundef %22, ptr noundef %23)
  store ptr %24, ptr %10, align 8, !tbaa !3
  %25 = load ptr, ptr %9, align 8, !tbaa !3
  call void @Py_DECREF(ptr noundef %25)
  %26 = load ptr, ptr %10, align 8, !tbaa !3
  store ptr %26, ptr %5, align 8
  store i32 1, ptr %11, align 4
  call void @llvm.lifetime.end.p0(i64 8, ptr %12) #8
  br label %27

27:                                               ; preds = %18, %17
  call void @llvm.lifetime.end.p0(i64 8, ptr %10) #8
  %28 = load ptr, ptr %5, align 8
  ret ptr %28
}

; Function Attrs: inlinehint nounwind uwtable
define internal i32 @PyType_HasFeature(ptr noundef %0, i64 noundef %1) #3 {
  %3 = alloca ptr, align 8
  %4 = alloca i64, align 8
  %5 = alloca i64, align 8
  store ptr %0, ptr %3, align 8, !tbaa !28
  store i64 %1, ptr %4, align 8, !tbaa !30
  call void @llvm.lifetime.start.p0(i64 8, ptr %5) #8
  %6 = load ptr, ptr %3, align 8, !tbaa !28
  %7 = getelementptr inbounds nuw %struct._typeobject, ptr %6, i32 0, i32 19
  %8 = load i64, ptr %7, align 8, !tbaa !51
  store i64 %8, ptr %5, align 8, !tbaa !30
  %9 = load i64, ptr %5, align 8, !tbaa !30
  %10 = load i64, ptr %4, align 8, !tbaa !30
  %11 = and i64 %9, %10
  %12 = icmp ne i64 %11, 0
  %13 = zext i1 %12 to i32
  call void @llvm.lifetime.end.p0(i64 8, ptr %5) #8
  ret i32 %13
}

; Function Attrs: inlinehint nounwind uwtable
define internal ptr @_Py_TYPE(ptr noundef %0) #3 {
  %2 = alloca ptr, align 8
  store ptr %0, ptr %2, align 8, !tbaa !3
  %3 = load ptr, ptr %2, align 8, !tbaa !3
  %4 = getelementptr inbounds nuw %struct._object, ptr %3, i32 0, i32 1
  %5 = load ptr, ptr %4, align 8, !tbaa !52
  ret ptr %5
}

; Function Attrs: nounwind uwtable
define internal ptr @_elementtree_Element_makeelement(ptr noundef %0, ptr noundef %1, ptr noundef %2, i64 noundef %3, ptr noundef %4) #0 {
  %6 = alloca ptr, align 8
  %7 = alloca ptr, align 8
  %8 = alloca ptr, align 8
  %9 = alloca i64, align 8
  %10 = alloca ptr, align 8
  %11 = alloca ptr, align 8
  %12 = alloca [2 x ptr], align 16
  %13 = alloca ptr, align 8
  %14 = alloca ptr, align 8
  store ptr %0, ptr %6, align 8, !tbaa !3
  store ptr %1, ptr %7, align 8, !tbaa !28
  store ptr %2, ptr %8, align 8, !tbaa !24
  store i64 %3, ptr %9, align 8, !tbaa !30
  store ptr %4, ptr %10, align 8, !tbaa !3
  call void @llvm.lifetime.start.p0(i64 8, ptr %11) #8
  store ptr null, ptr %11, align 8, !tbaa !3
  call void @llvm.lifetime.start.p0(i64 16, ptr %12) #8
  call void @llvm.lifetime.start.p0(i64 8, ptr %13) #8
  call void @llvm.lifetime.start.p0(i64 8, ptr %14) #8
  %15 = load ptr, ptr %10, align 8, !tbaa !3
  %16 = icmp eq ptr %15, null
  br i1 %16, label %17, label %28

17:                                               ; preds = %5
  %18 = load i64, ptr %9, align 8, !tbaa !30
  %19 = icmp sle i64 2, %18
  br i1 %19, label %20, label %28

20:                                               ; preds = %17
  %21 = load i64, ptr %9, align 8, !tbaa !30
  %22 = icmp sle i64 %21, 2
  br i1 %22, label %23, label %28

23:                                               ; preds = %20
  %24 = load ptr, ptr %8, align 8, !tbaa !24
  %25 = icmp ne ptr %24, null
  br i1 %25, label %26, label %28

26:                                               ; preds = %23
  %27 = load ptr, ptr %8, align 8, !tbaa !24
  br label %34

28:                                               ; preds = %23, %20, %17, %5
  %29 = load ptr, ptr %8, align 8, !tbaa !24
  %30 = load i64, ptr %9, align 8, !tbaa !30
  %31 = load ptr, ptr %10, align 8, !tbaa !3
  %32 = getelementptr inbounds [2 x ptr], ptr %12, i64 0, i64 0
  %33 = call ptr @_PyArg_UnpackKeywords(ptr noundef %29, i64 noundef %30, ptr noundef null, ptr noundef %31, ptr noundef @_elementtree_Element_makeelement._parser, i32 noundef 2, i32 noundef 2, i32 noundef 0, i32 noundef 0, ptr noundef %32)
  br label %34

34:                                               ; preds = %28, %26
  %35 = phi ptr [ %27, %26 ], [ %33, %28 ]
  store ptr %35, ptr %8, align 8, !tbaa !24
  %36 = load ptr, ptr %8, align 8, !tbaa !24
  %37 = icmp ne ptr %36, null
  br i1 %37, label %39, label %38

38:                                               ; preds = %34
  br label %62

39:                                               ; preds = %34
  %40 = load ptr, ptr %8, align 8, !tbaa !24
  %41 = getelementptr ptr, ptr %40, i64 0
  %42 = load ptr, ptr %41, align 8, !tbaa !3
  store ptr %42, ptr %13, align 8, !tbaa !3
  %43 = load ptr, ptr %8, align 8, !tbaa !24
  %44 = getelementptr ptr, ptr %43, i64 1
  %45 = load ptr, ptr %44, align 8, !tbaa !3
  %46 = call ptr @_Py_TYPE(ptr noundef %45)
  %47 = call i32 @PyType_HasFeature(ptr noundef %46, i64 noundef 536870912)
  %48 = icmp ne i32 %47, 0
  br i1 %48, label %53, label %49

49:                                               ; preds = %39
  %50 = load ptr, ptr %8, align 8, !tbaa !24
  %51 = getelementptr ptr, ptr %50, i64 1
  %52 = load ptr, ptr %51, align 8, !tbaa !3
  call void @_PyArg_BadArgument(ptr noundef @.str.68, ptr noundef @.str.42, ptr noundef @.str.43, ptr noundef %52)
  br label %62

53:                                               ; preds = %39
  %54 = load ptr, ptr %8, align 8, !tbaa !24
  %55 = getelementptr ptr, ptr %54, i64 1
  %56 = load ptr, ptr %55, align 8, !tbaa !3
  store ptr %56, ptr %14, align 8, !tbaa !3
  %57 = load ptr, ptr %6, align 8, !tbaa !3
  %58 = load ptr, ptr %7, align 8, !tbaa !28
  %59 = load ptr, ptr %13, align 8, !tbaa !3
  %60 = load ptr, ptr %14, align 8, !tbaa !3
  %61 = call ptr @_elementtree_Element_makeelement_impl(ptr noundef %57, ptr noundef %58, ptr noundef %59, ptr noundef %60)
  store ptr %61, ptr %11, align 8, !tbaa !3
  br label %62

62:                                               ; preds = %53, %49, %38
  %63 = load ptr, ptr %11, align 8, !tbaa !3
  call void @llvm.lifetime.end.p0(i64 8, ptr %14) #8
  call void @llvm.lifetime.end.p0(i64 8, ptr %13) #8
  call void @llvm.lifetime.end.p0(i64 16, ptr %12) #8
  call void @llvm.lifetime.end.p0(i64 8, ptr %11) #8
  ret ptr %63
}