; Function Attrs: nounwind uwtable
define internal ptr @_elementtree_Element_makeelement(ptr readnone captures(none) %0, ptr noundef %1, ptr noundef %2, i64 noundef %3, ptr noundef %4) #0 {
  %6 = alloca [2 x ptr], align 16
  call void @llvm.lifetime.start.p0(i64 16, ptr nonnull %6) #12
  %7 = icmp eq ptr %4, null
  %8 = icmp eq i64 %3, 2
  %or.cond3 = and i1 %8, %7
  %9 = icmp ne ptr %2, null
  %or.cond5 = and i1 %9, %or.cond3
  br i1 %or.cond5, label %.thread, label %10

10:                                               ; preds = %5
  %11 = call ptr @_PyArg_UnpackKeywords(ptr noundef %2, i64 noundef %3, ptr noundef null, ptr noundef %4, ptr noundef nonnull @_elementtree_Element_makeelement._parser, i32 noundef 2, i32 noundef 2, i32 noundef 0, i32 noundef 0, ptr noundef nonnull %6) #12
  %.not = icmp eq ptr %11, null
  br i1 %.not, label %_elementtree_Element_makeelement_impl.exit, label %.thread

.thread:                                          ; preds = %5, %10
  %12 = phi ptr [ %11, %10 ], [ %2, %5 ]
  %13 = load ptr, ptr %12, align 8, !tbaa !20
  %14 = getelementptr i8, ptr %12, i64 8
  %15 = load ptr, ptr %14, align 8, !tbaa !20
  %16 = getelementptr i8, ptr %15, i64 8
  %.val = load ptr, ptr %16, align 8, !tbaa !25
  %17 = getelementptr i8, ptr %.val, i64 168
  %.val25 = load i64, ptr %17, align 8, !tbaa !43
  %18 = and i64 %.val25, 536870912
  %.not24 = icmp eq i64 %18, 0
  br i1 %.not24, label %19, label %20

19:                                               ; preds = %.thread
  call void @_PyArg_BadArgument(ptr noundef nonnull @.str.68, ptr noundef nonnull @.str.42, ptr noundef nonnull @.str.43, ptr noundef nonnull %15) #12
  br label %_elementtree_Element_makeelement_impl.exit

20:                                               ; preds = %.thread
  %21 = call ptr @PyDict_Copy(ptr noundef nonnull %15) #12
  %.not.i = icmp eq ptr %21, null
  br i1 %.not.i, label %_elementtree_Element_makeelement_impl.exit, label %22

22:                                               ; preds = %20
  %23 = call ptr @PyType_GetModuleState(ptr noundef %1) #12
  %24 = getelementptr i8, ptr %23, i64 104
  %.val.i = load ptr, ptr %24, align 8, !tbaa !15
  %25 = call fastcc ptr @create_new_element(ptr %.val.i, ptr noundef %13, ptr noundef nonnull %21)
  %26 = load i32, ptr %21, align 8, !tbaa !21
  %.not.i.i = icmp sgt i32 %26, -1
  br i1 %.not.i.i, label %27, label %_elementtree_Element_makeelement_impl.exit

27:                                               ; preds = %22
  %28 = add nsw i32 %26, -1
  store i32 %28, ptr %21, align 8, !tbaa !21
  %29 = icmp eq i32 %28, 0
  br i1 %29, label %30, label %_elementtree_Element_makeelement_impl.exit

30:                                               ; preds = %27
  call void @_Py_Dealloc(ptr noundef nonnull %21) #12
  br label %_elementtree_Element_makeelement_impl.exit

_elementtree_Element_makeelement_impl.exit:       ; preds = %30, %27, %22, %20, %10, %19
  %.0 = phi ptr [ null, %19 ], [ null, %10 ], [ null, %20 ], [ %25, %22 ], [ %25, %27 ], [ %25, %30 ]
  call void @llvm.lifetime.end.p0(i64 16, ptr nonnull %6) #12
  ret ptr %.0
}